target datalayout = "e-m:e-p270:32:32-p271:32:32-p272:64:64-i64:64-i128:128-f80:128-n8:16:32:64-S128"
target triple = "x86_64-unknown-linux-gnu"

%"class.icu_75::UMutex" = type { [40 x i8], %"struct.std::atomic", ptr }
%"struct.std::atomic" = type { %"struct.std::__atomic_base" }
%"struct.std::__atomic_base" = type { ptr }
%"class.icu_75::UObject" = type { ptr }
%"class.icu_75::ConstChar16Ptr" = type { ptr }
%"class.icu_75::UnicodeString" = type { %"class.icu_75::Replaceable", %"union.icu_75::UnicodeString::StackBufferOrFields" }
%"class.icu_75::Replaceable" = type { %"class.icu_75::UObject" }
%"union.icu_75::UnicodeString::StackBufferOrFields" = type { %struct.anon.0, [32 x i8] }
%struct.anon.0 = type { i16, i32, i32, ptr }

@_ZN6icu_75L5gLockE = internal global %"class.icu_75::UMutex" zeroinitializer, align 8

; Function Attrs: mustprogress nounwind uwtable
define linkonce_odr void @_ZN6icu_7514ConstChar16PtrD2Ev(ptr noundef nonnull align 8 dereferenceable(8) %this) unnamed_addr #0 comdat align 2 {
entry:
  %this.addr = alloca ptr, align 8
  store ptr %this, ptr %this.addr, align 8
  %this1 = load ptr, ptr %this.addr, align 8
  %p_ = getelementptr inbounds %"class.icu_75::ConstChar16Ptr", ptr %this1, i32 0, i32 0
  %0 = load ptr, ptr %p_, align 8
  call void asm sideeffect "", "rm,~{memory},~{dirflag},~{fpsr},~{flags}"(ptr %0) #9, !srcloc !4
  ret void
}

; Function Attrs: mustprogress nounwind uwtable
define linkonce_odr void @_ZN6icu_7514ConstChar16PtrC2EPKDs(ptr noundef nonnull align 8 dereferenceable(8) %this, ptr noundef %p) unnamed_addr #0 comdat align 2 {
entry:
  %this.addr = alloca ptr, align 8
  %p.addr = alloca ptr, align 8
  store ptr %this, ptr %this.addr, align 8
  store ptr %p, ptr %p.addr, align 8
  %this1 = load ptr, ptr %this.addr, align 8
  %p_ = getelementptr inbounds %"class.icu_75::ConstChar16Ptr", ptr %this1, i32 0, i32 0
  %0 = load ptr, ptr %p.addr, align 8
  store ptr %0, ptr %p_, align 8
  ret void
}

; Function Attrs: mustprogress nounwind uwtable
define linkonce_odr noundef signext i8 @_ZNK6icu_7513UnicodeString7isEmptyEv(ptr noundef nonnull align 8 dereferenceable(64) %this) #0 comdat align 2 {
entry:
  %this.addr = alloca ptr, align 8
  store ptr %this, ptr %this.addr, align 8
  %this1 = load ptr, ptr %this.addr, align 8
  %fUnion = getelementptr inbounds %"class.icu_75::UnicodeString", ptr %this1, i32 0, i32 1
  %fLengthAndFlags = getelementptr inbounds %struct.anon.0, ptr %fUnion, i32 0, i32 0
  %0 = load i16, ptr %fLengthAndFlags, align 8
  %conv = sext i16 %0 to i32
  %shr = ashr i32 %conv, 5
  %cmp = icmp eq i32 %shr, 0
  %conv2 = zext i1 %cmp to i8
  ret i8 %conv2
}

; Function Attrs: mustprogress uwtable
define noundef nonnull align 8 dereferenceable(64) ptr @_ZNK6icu_758TZGNCore22getPartialLocationNameERKNS_13UnicodeStringES3_aS3_RS1_(ptr noundef nonnull align 8 dereferenceable(485) %this, ptr noundef nonnull align 8 dereferenceable(64) %tzCanonicalID, ptr noundef nonnull align 8 dereferenceable(64) %mzID, i8 noundef signext %isLong, ptr noundef nonnull align 8 dereferenceable(64) %mzDisplayName, ptr noundef nonnull align 8 dereferenceable(64) %name) #1 align 2 personality ptr @__gxx_personality_v0 {
entry:
  %retval = alloca ptr, align 8
  %this.addr = alloca ptr, align 8
  %tzCanonicalID.addr = alloca ptr, align 8
  %mzID.addr = alloca ptr, align 8
  %isLong.addr = alloca i8, align 1
  %mzDisplayName.addr = alloca ptr, align 8
  %name.addr = alloca ptr, align 8
  %uplname = alloca ptr, align 8
  %nonConstThis = alloca ptr, align 8
  %agg.tmp = alloca %"class.icu_75::ConstChar16Ptr", align 8
  %exn.slot = alloca ptr, align 8
  %ehselector.slot = alloca i32, align 4
  store ptr %this, ptr %this.addr, align 8
  store ptr %tzCanonicalID, ptr %tzCanonicalID.addr, align 8
  store ptr %mzID, ptr %mzID.addr, align 8
  store i8 %isLong, ptr %isLong.addr, align 1
  store ptr %mzDisplayName, ptr %mzDisplayName.addr, align 8
  store ptr %name, ptr %name.addr, align 8
  %this1 = load ptr, ptr %this.addr, align 8
  %0 = load ptr, ptr %name.addr, align 8
  call void @_ZN6icu_7513UnicodeString10setToBogusEv(ptr noundef nonnull align 8 dereferenceable(64) %0)
  %1 = load ptr, ptr %tzCanonicalID.addr, align 8
  %call = call noundef signext i8 @_ZNK6icu_7513UnicodeString7isEmptyEv(ptr noundef nonnull align 8 dereferenceable(64) %1)
  %tobool = icmp ne i8 %call, 0
  br i1 %tobool, label %if.then, label %lor.lhs.false

lor.lhs.false:                                    ; preds = %entry
  %2 = load ptr, ptr %mzID.addr, align 8
  %call2 = call noundef signext i8 @_ZNK6icu_7513UnicodeString7isEmptyEv(ptr noundef nonnull align 8 dereferenceable(64) %2)
  %tobool3 = icmp ne i8 %call2, 0
  br i1 %tobool3, label %if.then, label %lor.lhs.false4

lor.lhs.false4:                                   ; preds = %lor.lhs.false
  %3 = load ptr, ptr %mzDisplayName.addr, align 8
  %call5 = call noundef signext i8 @_ZNK6icu_7513UnicodeString7isEmptyEv(ptr noundef nonnull align 8 dereferenceable(64) %3)
  %tobool6 = icmp ne i8 %call5, 0
  br i1 %tobool6, label %if.then, label %if.end

if.then:                                          ; preds = %lor.lhs.false4, %lor.lhs.false, %entry
  %4 = load ptr, ptr %name.addr, align 8
  store ptr %4, ptr %retval, align 8
  br label %return

if.end:                                           ; preds = %lor.lhs.false4
  store ptr null, ptr %uplname, align 8
  store ptr %this1, ptr %nonConstThis, align 8
  call void @umtx_lock_75(ptr noundef @_ZN6icu_75L5gLockE)
  %5 = load ptr, ptr %nonConstThis, align 8
  %6 = load ptr, ptr %tzCanonicalID.addr, align 8
  %7 = load ptr, ptr %mzID.addr, align 8
  %8 = load i8, ptr %isLong.addr, align 1
  %9 = load ptr, ptr %mzDisplayName.addr, align 8
  %call7 = call noundef ptr @_ZN6icu_758TZGNCore22getPartialLocationNameERKNS_13UnicodeStringES3_aS3_(ptr noundef nonnull align 8 dereferenceable(485) %5, ptr noundef nonnull align 8 dereferenceable(64) %6, ptr noundef nonnull align 8 dereferenceable(64) %7, i8 noundef signext %8, ptr noundef nonnull align 8 dereferenceable(64) %9)
  store ptr %call7, ptr %uplname, align 8
  call void @umtx_unlock_75(ptr noundef @_ZN6icu_75L5gLockE)
  %10 = load ptr, ptr %uplname, align 8
  %cmp = icmp eq ptr %10, null
  br i1 %cmp, label %if.then8, label %if.else

if.then8:                                         ; preds = %if.end
  %11 = load ptr, ptr %name.addr, align 8
  call void @_ZN6icu_7513UnicodeString10setToBogusEv(ptr noundef nonnull align 8 dereferenceable(64) %11)
  br label %if.end10

if.else:                                          ; preds = %if.end
  %12 = load ptr, ptr %name.addr, align 8
  %13 = load ptr, ptr %uplname, align 8
  call void @_ZN6icu_7514ConstChar16PtrC2EPKDs(ptr noundef nonnull align 8 dereferenceable(8) %agg.tmp, ptr noundef %13)
  %call9 = invoke noundef nonnull align 8 dereferenceable(64) ptr @_ZN6icu_7513UnicodeString5setToEaNS_14ConstChar16PtrEi(ptr noundef nonnull align 8 dereferenceable(64) %12, i8 noundef signext 1, ptr noundef %agg.tmp, i32 noundef -1)
          to label %invoke.cont unwind label %lpad

invoke.cont:                                      ; preds = %if.else
  call void @_ZN6icu_7514ConstChar16PtrD2Ev(ptr noundef nonnull align 8 dereferenceable(8) %agg.tmp) #9
  br label %if.end10

lpad:                                             ; preds = %if.else
  %14 = landingpad { ptr, i32 }
          cleanup
  %15 = extractvalue { ptr, i32 } %14, 0
  store ptr %15, ptr %exn.slot, align 8
  %16 = extractvalue { ptr, i32 } %14, 1
  store i32 %16, ptr %ehselector.slot, align 4
  call void @_ZN6icu_7514ConstChar16PtrD2Ev(ptr noundef nonnull align 8 dereferenceable(8) %agg.tmp) #9
  br label %eh.resume

if.end10:                                         ; preds = %invoke.cont, %if.then8
  %17 = load ptr, ptr %name.addr, align 8
  store ptr %17, ptr %retval, align 8
  br label %return

return:                                           ; preds = %if.end10, %if.then
  %18 = load ptr, ptr %retval, align 8
  ret ptr %18

eh.resume:                                        ; preds = %lpad
  %exn = load ptr, ptr %exn.slot, align 8
  %sel = load i32, ptr %ehselector.slot, align 4
  %lpad.val = insertvalue { ptr, i32 } poison, ptr %exn, 0
  %lpad.val11 = insertvalue { ptr, i32 } %lpad.val, i32 %sel, 1
  resume { ptr, i32 } %lpad.val11
}