; Function Attrs: mustprogress uwtable
define noundef nonnull align 8 dereferenceable(64) ptr @_ZNK6icu_758TZGNCore22getPartialLocationNameERKNS_13UnicodeStringES3_aS3_RS1_(ptr noundef nonnull align 8 dereferenceable(485) %this, ptr noundef nonnull align 8 dereferenceable(64) %tzCanonicalID, ptr noundef nonnull align 8 dereferenceable(64) %mzID, i8 noundef signext %isLong, ptr noundef nonnull align 8 dereferenceable(64) %mzDisplayName, ptr noundef nonnull returned align 8 dereferenceable(64) %name) local_unnamed_addr #1 align 2 personality ptr @__gxx_personality_v0 {
entry:
  %agg.tmp = alloca %"class.icu_75::ConstChar16Ptr", align 8
  tail call void @_ZN6icu_7513UnicodeString10setToBogusEv(ptr noundef nonnull align 8 dereferenceable(64) %name)
  %fUnion.i = getelementptr inbounds i8, ptr %tzCanonicalID, i64 8
  %0 = load i16, ptr %fUnion.i, align 8
  %cmp.i = icmp ugt i16 %0, 31
  %fUnion.i9 = getelementptr inbounds i8, ptr %mzID, i64 8
  %1 = load i16, ptr %fUnion.i9, align 8
  %cmp.i10 = icmp ugt i16 %1, 31
  %or.cond = select i1 %cmp.i, i1 %cmp.i10, i1 false
  %fUnion.i12 = getelementptr inbounds i8, ptr %mzDisplayName, i64 8
  %2 = load i16, ptr %fUnion.i12, align 8
  %cmp.i13 = icmp ugt i16 %2, 31
  %or.cond15 = select i1 %or.cond, i1 %cmp.i13, i1 false
  br i1 %or.cond15, label %if.end, label %return

if.end:                                           ; preds = %entry
  tail call void @umtx_lock_75(ptr noundef nonnull @_ZN6icu_75L5gLockE)
  %call7 = tail call noundef ptr @_ZN6icu_758TZGNCore22getPartialLocationNameERKNS_13UnicodeStringES3_aS3_(ptr noundef nonnull align 8 dereferenceable(485) %this, ptr noundef nonnull align 8 dereferenceable(64) %tzCanonicalID, ptr noundef nonnull align 8 dereferenceable(64) %mzID, i8 noundef signext %isLong, ptr noundef nonnull align 8 dereferenceable(64) %mzDisplayName)
  tail call void @umtx_unlock_75(ptr noundef nonnull @_ZN6icu_75L5gLockE)
  %cmp = icmp eq ptr %call7, null
  br i1 %cmp, label %if.then8, label %if.else

if.then8:                                         ; preds = %if.end
  tail call void @_ZN6icu_7513UnicodeString10setToBogusEv(ptr noundef nonnull align 8 dereferenceable(64) %name)
  br label %return

if.else:                                          ; preds = %if.end
  store ptr %call7, ptr %agg.tmp, align 8
  %call9 = invoke noundef nonnull align 8 dereferenceable(64) ptr @_ZN6icu_7513UnicodeString5setToEaNS_14ConstChar16PtrEi(ptr noundef nonnull align 8 dereferenceable(64) %name, i8 noundef signext 1, ptr noundef nonnull %agg.tmp, i32 noundef -1)
          to label %invoke.cont unwind label %lpad

invoke.cont:                                      ; preds = %if.else
  %3 = load ptr, ptr %agg.tmp, align 8
  call void asm sideeffect "", "rm,~{memory},~{dirflag},~{fpsr},~{flags}"(ptr %3) #17, !srcloc !4
  br label %return

lpad:                                             ; preds = %if.else
  %4 = landingpad { ptr, i32 }
          cleanup
  %5 = load ptr, ptr %agg.tmp, align 8
  call void asm sideeffect "", "rm,~{memory},~{dirflag},~{fpsr},~{flags}"(ptr %5) #17, !srcloc !4
  resume { ptr, i32 } %4

return:                                           ; preds = %if.then8, %invoke.cont, %entry
  ret ptr %name
}